; Function Attrs: mustprogress nounwind uwtable
define internal noundef ptr @_ZN12_GLOBAL__N_19CGObjCGNU19GenerateProtocolRefEPKN5clang16ObjCProtocolDeclE(ptr noundef nonnull align 8 dereferenceable(1184) %0, ptr noundef %1) unnamed_addr #0 align 2 {
  %3 = alloca %"class.std::__cxx11::basic_string", align 8
  %4 = getelementptr inbounds nuw i8, ptr %0, i64 368
  %5 = getelementptr inbounds nuw i8, ptr %1, i64 40
  call void @_ZNK5clang15DeclarationName11getAsStringB5cxx11Ev(ptr dead_on_unwind nonnull writable sret(%"class.std::__cxx11::basic_string") align 8 %3, ptr noundef nonnull align 8 dereferenceable(8) %5) #23
  %6 = call noundef ptr @_ZNKSt7__cxx1112basic_stringIcSt11char_traitsIcESaIcEE4dataEv(ptr noundef nonnull align 8 dereferenceable(32) %3) #23
  %7 = call noundef i64 @_ZNKSt7__cxx1112basic_stringIcSt11char_traitsIcESaIcEE6lengthEv(ptr noundef nonnull align 8 dereferenceable(32) %3) #23
  %8 = call noundef i32 @_ZN4llvm13StringMapImpl4hashENS_9StringRefE(ptr %6, i64 %7) #23
  %9 = call { ptr, i8 } @_ZN4llvm9StringMapIPNS_8ConstantENS_15MallocAllocatorEE21try_emplace_with_hashIJEEESt4pairINS_17StringMapIteratorIS2_EEbENS_9StringRefEjDpOT_(ptr noundef nonnull align 8 dereferenceable(24) %4, ptr %6, i64 %7, i32 noundef %8)
  %.fca.0.extract.i = extractvalue { ptr, i8 } %9, 0
  %10 = load ptr, ptr %.fca.0.extract.i, align 8
  %11 = getelementptr inbounds nuw i8, ptr %10, i64 8
  call void @_ZNSt7__cxx1112basic_stringIcSt11char_traitsIcESaIcEED1Ev(ptr noundef nonnull align 8 dereferenceable(32) %3) #23
  %12 = load ptr, ptr %11, align 8
  %.not = icmp eq ptr %12, null
  br i1 %.not, label %13, label %17

13:                                               ; preds = %2
  %14 = load ptr, ptr %0, align 8
  %15 = getelementptr inbounds nuw i8, ptr %14, i64 120
  %16 = load ptr, ptr %15, align 8
  call void %16(ptr noundef nonnull align 8 dereferenceable(1184) %0, ptr noundef nonnull %1) #23
  %.pre = load ptr, ptr %11, align 8
  br label %17

17:                                               ; preds = %13, %2
  %18 = phi ptr [ %.pre, %13 ], [ %12, %2 ]
  ret ptr %18
}